(lp0
(dp1
Vtype
p2
VKitchen
p3
sVconditions
p4
(lp5
(dp6
Voperator
p7
V=
p8
sVinput
p9
(dp10
Vvariable
p11
I0
sVname
p12
VFirst switch
p13
ssVvalue
p14
Vtrue
p15
sasVname
p16
VFirst switch
p17
sVactions
p18
(lp19
(dp20
Voutput
p21
(dp22
Vvariable
p23
I0
sVname
p24
VMain light
p25
ssVvalue
p26
Vtoggle
p27
sasa(dp28
Vtype
p29
VKitchen
p30
sVconditions
p31
(lp32
(dp33
Voperator
p34
V=
p35
sVinput
p36
(dp37
Vvariable
p38
I1
sVname
p39
VSecond switch
p40
ssVvalue
p41
Vtrue
p42
sasVname
p43
VSecond switch
p44
sVactions
p45
(lp46
(dp47
Voutput
p48
(dp49
Vvariable
p50
I1
sVname
p51
VFirst light
p52
ssVvalue
p53
Vtoggle
p54
sasa.